; ModuleID = '34/389.c'
source_filename = "34/389.c"
target datalayout = "e-m:e-p270:32:32-p271:32:32-p272:64:64-i64:64-f80:128-n8:16:32:64-S128"
target triple = "x86_64-pc-linux-gnu"

@.str = private unnamed_addr constant [3 x i8] c"%d\00", align 1
@.str.1 = private unnamed_addr constant [9 x i8] c"%d/2=%d\0A\00", align 1
@.str.2 = private unnamed_addr constant [11 x i8] c"%d*3+1=%d\0A\00", align 1
@.str.3 = private unnamed_addr constant [5 x i8] c"End\0A\00", align 1

; Function Attrs: noinline nounwind uwtable
define dso_local i32 @main() #0 {
  %1 = alloca i32, align 4
  %2 = alloca i32, align 4
  %3 = alloca i32, align 4
  %4 = alloca i32, align 4
  %5 = alloca i64, align 8
  store i32 0, i32* %1, align 4
  %6 = call i32 (i8*, ...) @__isoc99_scanf(i8* getelementptr inbounds ([3 x i8], [3 x i8]* @.str, i64 0, i64 0), i32* %2)
  store i64 1, i64* %5, align 8
  br label %7

7:                                                ; preds = %37, %0
  %8 = load i64, i64* %5, align 8
  %9 = icmp sle i64 %8, 10000000
  br i1 %9, label %10, label %40

10:                                               ; preds = %7
  %11 = load i32, i32* %2, align 4
  %12 = icmp eq i32 %11, 1
  br i1 %12, label %13, label %14

13:                                               ; preds = %10
  br label %40

14:                                               ; preds = %10
  %15 = load i32, i32* %2, align 4
  %16 = srem i32 %15, 2
  %17 = icmp eq i32 %16, 0
  br i1 %17, label %18, label %26

18:                                               ; preds = %14
  %19 = load i32, i32* %2, align 4
  store i32 %19, i32* %3, align 4
  %20 = load i32, i32* %3, align 4
  %21 = sdiv i32 %20, 2
  store i32 %21, i32* %4, align 4
  %22 = load i32, i32* %3, align 4
  %23 = load i32, i32* %4, align 4
  %24 = call i32 (i8*, ...) @printf(i8* getelementptr inbounds ([9 x i8], [9 x i8]* @.str.1, i64 0, i64 0), i32 %22, i32 %23)
  %25 = load i32, i32* %4, align 4
  store i32 %25, i32* %2, align 4
  br label %35

26:                                               ; preds = %14
  %27 = load i32, i32* %2, align 4
  store i32 %27, i32* %3, align 4
  %28 = load i32, i32* %3, align 4
  %29 = mul nsw i32 %28, 3
  %30 = add nsw i32 %29, 1
  store i32 %30, i32* %4, align 4
  %31 = load i32, i32* %3, align 4
  %32 = load i32, i32* %4, align 4
  %33 = call i32 (i8*, ...) @printf(i8* getelementptr inbounds ([11 x i8], [11 x i8]* @.str.2, i64 0, i64 0), i32 %31, i32 %32)
  %34 = load i32, i32* %4, align 4
  store i32 %34, i32* %2, align 4
  br label %35

35:                                               ; preds = %26, %18
  br label %36

36:                                               ; preds = %35
  br label %37

37:                                               ; preds = %36
  %38 = load i64, i64* %5, align 8
  %39 = add nsw i64 %38, 1
  store i64 %39, i64* %5, align 8
  br label %7

40:                                               ; preds = %13, %7
  %41 = call i32 (i8*, ...) @printf(i8* getelementptr inbounds ([5 x i8], [5 x i8]* @.str.3, i64 0, i64 0))
  ret i32 0
}

declare dso_local i32 @__isoc99_scanf(i8*, ...) #1

declare dso_local i32 @printf(i8*, ...) #1


!llvm.module.flags = !{!0}
!llvm.ident = !{!1}

!0 = !{i32 1, !"wchar_size", i32 4}
!1 = !{!"clang version 10.0.0-4ubuntu1 "}
